; Function Attrs: nounwind uwtable
define internal range(i32 -1, 2) i32 @H5I__search_cb(ptr noundef %0, i64 noundef %1, ptr nocapture noundef %2) #0 {
  %4 = load ptr, ptr %2, align 8
  %5 = getelementptr inbounds i8, ptr %2, i64 8
  %6 = load ptr, ptr %5, align 8
  %7 = tail call i32 %4(ptr noundef %0, i64 noundef %1, ptr noundef %6) #3
  %8 = icmp sgt i32 %7, 0
  br i1 %8, label %9, label %11

9:                                                ; preds = %3
  %10 = getelementptr inbounds i8, ptr %2, i64 16
  store ptr %0, ptr %10, align 8
  br label %11

11:                                               ; preds = %3, %9
  %.0 = phi i32 [ 1, %9 ], [ -1, %3 ]
  ret i32 %.0
}